target datalayout = "e-m:e-p270:32:32-p271:32:32-p272:64:64-i64:64-i128:128-f80:128-n8:16:32:64-S128"
target triple = "x86_64-pc-linux-gnu"

%struct.ScreenSpace = type { ptr, i32, i32 }
%struct.GtkApi = type { i32, ptr, ptr, ptr, ptr, ptr, ptr, ptr, ptr, ptr, ptr, ptr, ptr, ptr, ptr, ptr, ptr, ptr, ptr, ptr, ptr, ptr, ptr, ptr, ptr, ptr, ptr, ptr, ptr, ptr, ptr, ptr, ptr, ptr, ptr, ptr, ptr, ptr, ptr, ptr, ptr, ptr, ptr, ptr, ptr, ptr, ptr, ptr, ptr, ptr, ptr, ptr, ptr, ptr, ptr, ptr, ptr, ptr, ptr, ptr, ptr, ptr, ptr, ptr, ptr, ptr, ptr, ptr, ptr, ptr, ptr, ptr, ptr, ptr, ptr, ptr, ptr, ptr, ptr, ptr, ptr, ptr, ptr, ptr, ptr, ptr, ptr, ptr, ptr, ptr, ptr, ptr, ptr, ptr, ptr, ptr, ptr, ptr, ptr, ptr, ptr, ptr, ptr, ptr, ptr }
%struct.ScreenProps = type { i32, %struct.GdkRectangle, %struct.GdkRectangle, ptr, ptr, i32, i32 }
%struct.GdkRectangle = type { i32, i32, i32, i32 }

@stderr = external global ptr, align 8
@gtk = external global ptr, align 8
@.str.2 = private unnamed_addr constant [10 x i8] c"(u@a{sv})\00", align 1
@.str.3 = private unnamed_addr constant [25 x i8] c"%s:%i \0A==== screenId#%i\0A\00", align 1
@__func__.rebuildScreenData = private unnamed_addr constant [18 x i8] c"rebuildScreenData\00", align 1
@screenSpace = external global %struct.ScreenSpace, align 8
@.str.4 = private unnamed_addr constant [33 x i8] c"%s:%i failed to allocate memory\0A\00", align 1
@.str.5 = private unnamed_addr constant [5 x i8] c"size\00", align 1
@.str.6 = private unnamed_addr constant [5 x i8] c"(ii)\00", align 1
@.str.7 = private unnamed_addr constant [9 x i8] c"position\00", align 1
@.str.8 = private unnamed_addr constant [31 x i8] c"%s:%i -----------------------\0A\00", align 1
@.str.9 = private unnamed_addr constant [121 x i8] c"%s:%i screenId#%i\0A||\09bounds         x %5i y %5i w %5i h %5i\0A||\09capture area   x %5i y %5i w %5i h %5i shouldCapture %i\0A\0A\00", align 1
@.str.10 = private unnamed_addr constant [32 x i8] c"%s:%i #---------------------#\0A\0A\00", align 1
@.str.11 = private unnamed_addr constant [31 x i8] c"%s:%i screenId#%i hasFailures\0A\00", align 1

; Function Attrs: nounwind uwtable
define hidden i32 @rebuildScreenData(ptr noundef %0, i32 noundef %1) #0 {
  %3 = alloca i32, align 4
  %4 = alloca ptr, align 8
  %5 = alloca i32, align 4
  %6 = alloca i32, align 4
  %7 = alloca ptr, align 8
  %8 = alloca i32, align 4
  %9 = alloca i32, align 4
  %10 = alloca ptr, align 8
  store ptr %0, ptr %4, align 8
  store i32 %1, ptr %5, align 4
  store ptr null, ptr %7, align 8
  store i32 0, ptr %8, align 4
  store i32 0, ptr %9, align 4
  br label %11

11:                                               ; preds = %76, %2
  %12 = load ptr, ptr @gtk, align 8
  %13 = getelementptr inbounds %struct.GtkApi, ptr %12, i32 0, i32 76
  %14 = load ptr, ptr %13, align 8
  %15 = load ptr, ptr %4, align 8
  %16 = call i32 (ptr, ptr, ...) %14(ptr noundef %15, ptr noundef @.str.2, ptr noundef %6, ptr noundef %7)
  %17 = icmp ne i32 %16, 0
  br i1 %17, label %18, label %121

18:                                               ; preds = %11
  %19 = load i32, ptr %6, align 4
  call void (ptr, ...) @debug_screencast(ptr noundef @.str.3, ptr noundef @__func__.rebuildScreenData, i32 noundef 87, i32 noundef %19)
  %20 = load i32, ptr %8, align 4
  %21 = load i32, ptr getelementptr inbounds (%struct.ScreenSpace, ptr @screenSpace, i32 0, i32 2), align 4
  %22 = icmp sge i32 %20, %21
  br i1 %22, label %23, label %36

23:                                               ; preds = %18
  %24 = load ptr, ptr @screenSpace, align 8
  %25 = load i32, ptr getelementptr inbounds (%struct.ScreenSpace, ptr @screenSpace, i32 0, i32 2), align 4
  %26 = add nsw i32 %25, 1
  store i32 %26, ptr getelementptr inbounds (%struct.ScreenSpace, ptr @screenSpace, i32 0, i32 2), align 4
  %27 = sext i32 %26 to i64
  %28 = mul i64 %27, 64
  %29 = call ptr @realloc(ptr noundef %24, i64 noundef %28) #8
  store ptr %29, ptr @screenSpace, align 8
  %30 = load ptr, ptr @screenSpace, align 8
  %31 = icmp ne ptr %30, null
  br i1 %31, label %35, label %32

32:                                               ; preds = %23
  %33 = load ptr, ptr @stderr, align 8
  %34 = call i32 (ptr, ptr, ...) @fprintf(ptr noundef %33, ptr noundef @.str.4, ptr noundef @__func__.rebuildScreenData, i32 noundef 95) #7
  store i32 0, ptr %3, align 4
  br label %131

35:                                               ; preds = %23
  br label %36

36:                                               ; preds = %35, %18
  %37 = load ptr, ptr @screenSpace, align 8
  %38 = load i32, ptr %8, align 4
  %39 = sext i32 %38 to i64
  %40 = getelementptr inbounds %struct.ScreenProps, ptr %37, i64 %39
  store ptr %40, ptr %10, align 8
  %41 = load ptr, ptr %10, align 8
  call void @llvm.memset.p0.i64(ptr align 8 %41, i8 0, i64 64, i1 false)
  %42 = load i32, ptr %8, align 4
  %43 = add nsw i32 %42, 1
  store i32 %43, ptr getelementptr inbounds (%struct.ScreenSpace, ptr @screenSpace, i32 0, i32 1), align 8
  %44 = load i32, ptr %6, align 4
  %45 = load ptr, ptr %10, align 8
  %46 = getelementptr inbounds %struct.ScreenProps, ptr %45, i32 0, i32 0
  store i32 %44, ptr %46, align 8
  %47 = load ptr, ptr @gtk, align 8
  %48 = getelementptr inbounds %struct.GtkApi, ptr %47, i32 0, i32 75
  %49 = load ptr, ptr %48, align 8
  %50 = load ptr, ptr %7, align 8
  %51 = load ptr, ptr %10, align 8
  %52 = getelementptr inbounds %struct.ScreenProps, ptr %51, i32 0, i32 1
  %53 = getelementptr inbounds %struct.GdkRectangle, ptr %52, i32 0, i32 2
  %54 = load ptr, ptr %10, align 8
  %55 = getelementptr inbounds %struct.ScreenProps, ptr %54, i32 0, i32 1
  %56 = getelementptr inbounds %struct.GdkRectangle, ptr %55, i32 0, i32 3
  %57 = call i32 (ptr, ptr, ptr, ...) %49(ptr noundef %50, ptr noundef @.str.5, ptr noundef @.str.6, ptr noundef %53, ptr noundef %56)
  %58 = icmp ne i32 %57, 0
  br i1 %58, label %59, label %75

59:                                               ; preds = %36
  %60 = load ptr, ptr @gtk, align 8
  %61 = getelementptr inbounds %struct.GtkApi, ptr %60, i32 0, i32 75
  %62 = load ptr, ptr %61, align 8
  %63 = load ptr, ptr %7, align 8
  %64 = load ptr, ptr %10, align 8
  %65 = getelementptr inbounds %struct.ScreenProps, ptr %64, i32 0, i32 1
  %66 = getelementptr inbounds %struct.GdkRectangle, ptr %65, i32 0, i32 0
  %67 = load ptr, ptr %10, align 8
  %68 = getelementptr inbounds %struct.ScreenProps, ptr %67, i32 0, i32 1
  %69 = getelementptr inbounds %struct.GdkRectangle, ptr %68, i32 0, i32 1
  %70 = call i32 (ptr, ptr, ptr, ...) %62(ptr noundef %63, ptr noundef @.str.7, ptr noundef @.str.6, ptr noundef %66, ptr noundef %69)
  %71 = icmp ne i32 %70, 0
  br i1 %71, label %76, label %72

72:                                               ; preds = %59
  %73 = load i32, ptr %5, align 4
  %74 = icmp ne i32 %73, 0
  br i1 %74, label %76, label %75

75:                                               ; preds = %72, %36
  store i32 1, ptr %9, align 4
  br label %76

76:                                               ; preds = %75, %72, %59
  call void (ptr, ...) @debug_screencast(ptr noundef @.str.8, ptr noundef @__func__.rebuildScreenData, i32 noundef 132, ptr noundef null)
  %77 = load ptr, ptr %10, align 8
  %78 = getelementptr inbounds %struct.ScreenProps, ptr %77, i32 0, i32 0
  %79 = load i32, ptr %78, align 8
  %80 = load ptr, ptr %10, align 8
  %81 = getelementptr inbounds %struct.ScreenProps, ptr %80, i32 0, i32 1
  %82 = getelementptr inbounds %struct.GdkRectangle, ptr %81, i32 0, i32 0
  %83 = load i32, ptr %82, align 4
  %84 = load ptr, ptr %10, align 8
  %85 = getelementptr inbounds %struct.ScreenProps, ptr %84, i32 0, i32 1
  %86 = getelementptr inbounds %struct.GdkRectangle, ptr %85, i32 0, i32 1
  %87 = load i32, ptr %86, align 4
  %88 = load ptr, ptr %10, align 8
  %89 = getelementptr inbounds %struct.ScreenProps, ptr %88, i32 0, i32 1
  %90 = getelementptr inbounds %struct.GdkRectangle, ptr %89, i32 0, i32 2
  %91 = load i32, ptr %90, align 4
  %92 = load ptr, ptr %10, align 8
  %93 = getelementptr inbounds %struct.ScreenProps, ptr %92, i32 0, i32 1
  %94 = getelementptr inbounds %struct.GdkRectangle, ptr %93, i32 0, i32 3
  %95 = load i32, ptr %94, align 4
  %96 = load ptr, ptr %10, align 8
  %97 = getelementptr inbounds %struct.ScreenProps, ptr %96, i32 0, i32 2
  %98 = getelementptr inbounds %struct.GdkRectangle, ptr %97, i32 0, i32 0
  %99 = load i32, ptr %98, align 4
  %100 = load ptr, ptr %10, align 8
  %101 = getelementptr inbounds %struct.ScreenProps, ptr %100, i32 0, i32 2
  %102 = getelementptr inbounds %struct.GdkRectangle, ptr %101, i32 0, i32 1
  %103 = load i32, ptr %102, align 4
  %104 = load ptr, ptr %10, align 8
  %105 = getelementptr inbounds %struct.ScreenProps, ptr %104, i32 0, i32 2
  %106 = getelementptr inbounds %struct.GdkRectangle, ptr %105, i32 0, i32 2
  %107 = load i32, ptr %106, align 4
  %108 = load ptr, ptr %10, align 8
  %109 = getelementptr inbounds %struct.ScreenProps, ptr %108, i32 0, i32 2
  %110 = getelementptr inbounds %struct.GdkRectangle, ptr %109, i32 0, i32 3
  %111 = load i32, ptr %110, align 4
  %112 = load ptr, ptr %10, align 8
  %113 = getelementptr inbounds %struct.ScreenProps, ptr %112, i32 0, i32 5
  %114 = load volatile i32, ptr %113, align 8
  call void (ptr, ...) @debug_screencast(ptr noundef @.str.9, ptr noundef @__func__.rebuildScreenData, i32 noundef 133, i32 noundef %79, i32 noundef %83, i32 noundef %87, i32 noundef %91, i32 noundef %95, i32 noundef %99, i32 noundef %103, i32 noundef %107, i32 noundef %111, i32 noundef %114)
  call void (ptr, ...) @debug_screencast(ptr noundef @.str.10, ptr noundef @__func__.rebuildScreenData, i32 noundef 134, ptr noundef null)
  %115 = load ptr, ptr @gtk, align 8
  %116 = getelementptr inbounds %struct.GtkApi, ptr %115, i32 0, i32 77
  %117 = load ptr, ptr %116, align 8
  %118 = load ptr, ptr %7, align 8
  call void %117(ptr noundef %118)
  %119 = load i32, ptr %8, align 4
  %120 = add nsw i32 %119, 1
  store i32 %120, ptr %8, align 4
  br label %11, !llvm.loop !6

121:                                              ; preds = %11
  %122 = load i32, ptr %9, align 4
  %123 = icmp ne i32 %122, 0
  br i1 %123, label %124, label %126

124:                                              ; preds = %121
  %125 = load i32, ptr %6, align 4
  call void (ptr, ...) @debug_screencast(ptr noundef @.str.11, ptr noundef @__func__.rebuildScreenData, i32 noundef 141, i32 noundef %125)
  br label %126

126:                                              ; preds = %124, %121
  %127 = load i32, ptr %9, align 4
  %128 = icmp ne i32 %127, 0
  %129 = xor i1 %128, true
  %130 = zext i1 %129 to i32
  store i32 %130, ptr %3, align 4
  br label %131

131:                                              ; preds = %126, %32
  %132 = load i32, ptr %3, align 4
  ret i32 %132
}