; Function Attrs: nounwind uwtable
define hidden range(i32 0, 2) i32 @rebuildScreenData(ptr noundef %0, i32 noundef %1) local_unnamed_addr #0 {
  %3 = alloca i32, align 4
  %4 = alloca ptr, align 8
  store ptr null, ptr %4, align 8
  %5 = load ptr, ptr @gtk, align 8
  %6 = getelementptr inbounds i8, ptr %5, i64 608
  %7 = load ptr, ptr %6, align 8
  %8 = call i32 (ptr, ptr, ...) %7(ptr noundef %0, ptr noundef nonnull @.str.2, ptr noundef nonnull %3, ptr noundef nonnull %4) #9
  %.not33 = icmp eq i32 %8, 0
  br i1 %.not33, label %._crit_edge.thread, label %.lr.ph

.lr.ph:                                           ; preds = %2, %42
  %indvars.iv = phi i64 [ %indvars.iv.next, %42 ], [ 0, %2 ]
  %.02535 = phi i32 [ %.1, %42 ], [ 0, %2 ]
  %9 = load i32, ptr %3, align 4
  call void (ptr, ...) @debug_screencast(ptr noundef nonnull @.str.3, ptr noundef nonnull @__func__.rebuildScreenData, i32 noundef 87, i32 noundef %9) #9
  %10 = load i32, ptr getelementptr inbounds (i8, ptr @screenSpace, i64 12), align 4
  %11 = sext i32 %10 to i64
  %.not29 = icmp slt i64 %indvars.iv, %11
  %.pre = load ptr, ptr @screenSpace, align 8
  br i1 %.not29, label %20, label %12

12:                                               ; preds = %.lr.ph
  %13 = add nsw i32 %10, 1
  store i32 %13, ptr getelementptr inbounds (i8, ptr @screenSpace, i64 12), align 4
  %14 = sext i32 %13 to i64
  %15 = shl nsw i64 %14, 6
  %16 = call ptr @realloc(ptr noundef %.pre, i64 noundef %15) #10
  store ptr %16, ptr @screenSpace, align 8
  %.not30 = icmp eq ptr %16, null
  br i1 %.not30, label %17, label %20

17:                                               ; preds = %12
  %18 = load ptr, ptr @stderr, align 8
  %19 = call i32 (ptr, ptr, ...) @fprintf(ptr noundef %18, ptr noundef nonnull @.str.4, ptr noundef nonnull @__func__.rebuildScreenData, i32 noundef 95) #8
  br label %._crit_edge.thread

20:                                               ; preds = %12, %.lr.ph
  %21 = phi ptr [ %16, %12 ], [ %.pre, %.lr.ph ]
  %22 = getelementptr inbounds %struct.ScreenProps, ptr %21, i64 %indvars.iv
  call void @llvm.memset.p0.i64(ptr noundef nonnull align 8 dereferenceable(64) %22, i8 0, i64 64, i1 false)
  %indvars.iv.next = add nuw nsw i64 %indvars.iv, 1
  %23 = trunc nuw i64 %indvars.iv.next to i32
  store i32 %23, ptr getelementptr inbounds (i8, ptr @screenSpace, i64 8), align 8
  %24 = load i32, ptr %3, align 4
  store i32 %24, ptr %22, align 8
  %25 = load ptr, ptr @gtk, align 8
  %26 = getelementptr inbounds i8, ptr %25, i64 600
  %27 = load ptr, ptr %26, align 8
  %28 = load ptr, ptr %4, align 8
  %29 = getelementptr inbounds i8, ptr %22, i64 4
  %30 = getelementptr inbounds i8, ptr %22, i64 12
  %31 = getelementptr inbounds i8, ptr %22, i64 16
  %32 = call i32 (ptr, ptr, ptr, ...) %27(ptr noundef %28, ptr noundef nonnull @.str.5, ptr noundef nonnull @.str.6, ptr noundef nonnull %30, ptr noundef nonnull %31) #9
  %.not31 = icmp eq i32 %32, 0
  br i1 %.not31, label %41, label %33

33:                                               ; preds = %20
  %34 = load ptr, ptr @gtk, align 8
  %35 = getelementptr inbounds i8, ptr %34, i64 600
  %36 = load ptr, ptr %35, align 8
  %37 = load ptr, ptr %4, align 8
  %38 = getelementptr inbounds i8, ptr %22, i64 8
  %39 = call i32 (ptr, ptr, ptr, ...) %36(ptr noundef %37, ptr noundef nonnull @.str.7, ptr noundef nonnull @.str.6, ptr noundef nonnull %29, ptr noundef nonnull %38) #9
  %40 = or i32 %39, %1
  %or.cond.not = icmp eq i32 %40, 0
  br i1 %or.cond.not, label %41, label %42

41:                                               ; preds = %33, %20
  br label %42

42:                                               ; preds = %41, %33
  %.1 = phi i32 [ %.02535, %33 ], [ 1, %41 ]
  call void (ptr, ...) @debug_screencast(ptr noundef nonnull @.str.8, ptr noundef nonnull @__func__.rebuildScreenData, i32 noundef 132, ptr noundef null) #9
  %43 = load i32, ptr %22, align 8
  %44 = load i32, ptr %29, align 4
  %45 = getelementptr inbounds i8, ptr %22, i64 8
  %46 = load i32, ptr %45, align 4
  %47 = load i32, ptr %30, align 4
  %48 = load i32, ptr %31, align 4
  %49 = getelementptr inbounds i8, ptr %22, i64 20
  %50 = load i32, ptr %49, align 4
  %51 = getelementptr inbounds i8, ptr %22, i64 24
  %52 = load i32, ptr %51, align 4
  %53 = getelementptr inbounds i8, ptr %22, i64 28
  %54 = load i32, ptr %53, align 4
  %55 = getelementptr inbounds i8, ptr %22, i64 32
  %56 = load i32, ptr %55, align 4
  %57 = getelementptr inbounds i8, ptr %22, i64 56
  %58 = load volatile i32, ptr %57, align 8
  call void (ptr, ...) @debug_screencast(ptr noundef nonnull @.str.9, ptr noundef nonnull @__func__.rebuildScreenData, i32 noundef 133, i32 noundef %43, i32 noundef %44, i32 noundef %46, i32 noundef %47, i32 noundef %48, i32 noundef %50, i32 noundef %52, i32 noundef %54, i32 noundef %56, i32 noundef %58) #9
  call void (ptr, ...) @debug_screencast(ptr noundef nonnull @.str.10, ptr noundef nonnull @__func__.rebuildScreenData, i32 noundef 134, ptr noundef null) #9
  %59 = load ptr, ptr @gtk, align 8
  %60 = getelementptr inbounds i8, ptr %59, i64 616
  %61 = load ptr, ptr %60, align 8
  %62 = load ptr, ptr %4, align 8
  call void %61(ptr noundef %62) #9
  %63 = load ptr, ptr @gtk, align 8
  %64 = getelementptr inbounds i8, ptr %63, i64 608
  %65 = load ptr, ptr %64, align 8
  %66 = call i32 (ptr, ptr, ...) %65(ptr noundef %0, ptr noundef nonnull @.str.2, ptr noundef nonnull %3, ptr noundef nonnull %4) #9
  %.not = icmp eq i32 %66, 0
  br i1 %.not, label %._crit_edge, label %.lr.ph, !llvm.loop !6

._crit_edge:                                      ; preds = %42
  %67 = icmp eq i32 %.1, 0
  br i1 %67, label %._crit_edge.thread, label %68

68:                                               ; preds = %._crit_edge
  %69 = load i32, ptr %3, align 4
  call void (ptr, ...) @debug_screencast(ptr noundef nonnull @.str.11, ptr noundef nonnull @__func__.rebuildScreenData, i32 noundef 141, i32 noundef %69) #9
  br label %._crit_edge.thread

._crit_edge.thread:                               ; preds = %._crit_edge, %68, %2, %17
  %.0 = phi i32 [ 0, %17 ], [ 0, %68 ], [ 1, %._crit_edge ], [ 1, %2 ]
  ret i32 %.0
}